; Function Attrs: mustprogress nofree norecurse nosync nounwind willreturn memory(read, inaccessiblemem: none) uwtable
define internal noundef zeroext i1 @"_ZNSt17_Function_handlerIFbRKSt4pairIj8rationalES4_EZN2dd11pdd_manager10subst_val0ERKNS6_3pddERK6vectorIS2_Lb1EjEE3$_0E9_M_invokeERKSt9_Any_dataS4_S4_"(ptr noundef nonnull readonly align 8 captures(none) dereferenceable(16) %0, ptr noundef nonnull readonly align 8 captures(none) dereferenceable(40) %1, ptr noundef nonnull readonly align 8 captures(none) dereferenceable(40) %2) #15 align 2 {
  %.val = load ptr, ptr %0, align 8, !tbaa !650
  %.val3 = load i32, ptr %1, align 8, !tbaa !195
  %.val4 = load i32, ptr %2, align 8, !tbaa !195
  %4 = getelementptr i8, ptr %.val, i64 136
  %.val.val = load ptr, ptr %4, align 8, !tbaa !53
  %5 = zext i32 %.val3 to i64
  %6 = getelementptr inbounds nuw i32, ptr %.val.val, i64 %5
  %7 = load i32, ptr %6, align 4, !tbaa !83
  %8 = zext i32 %.val4 to i64
  %9 = getelementptr inbounds nuw i32, ptr %.val.val, i64 %8
  %10 = load i32, ptr %9, align 4, !tbaa !83
  %11 = icmp ult i32 %7, %10
  ret i1 %11
}